target datalayout = "e-m:e-p270:32:32-p271:32:32-p272:64:64-i64:64-i128:128-f80:128-n8:16:32:64-S128"
target triple = "x86_64-pc-linux-gnu"

@bio_stdout = internal global ptr null, align 8
@npn_client = internal global i32 0, align 4
@npn_server = internal global i32 0, align 4
@npn_server_reject = internal global i32 0, align 4
@.str.86 = private unnamed_addr constant [2 x i8] c"\0A\00", align 1
@NEXT_PROTO_STRING = internal constant [11 x i8] c"\09testproto\00", align 1
@.str.243 = private unnamed_addr constant [13 x i8] c"Client NPN: \00", align 1
@.str.244 = private unnamed_addr constant [13 x i8] c"Server NPN: \00", align 1

; Function Attrs: nounwind uwtable
define internal i32 @verify_npn(ptr noundef %0, ptr noundef %1) #0 {
  %3 = alloca i32, align 4
  %4 = alloca ptr, align 8
  %5 = alloca ptr, align 8
  %6 = alloca ptr, align 8
  %7 = alloca i32, align 4
  %8 = alloca ptr, align 8
  %9 = alloca i32, align 4
  %10 = alloca i32, align 4
  store ptr %0, ptr %4, align 8, !tbaa !17
  store ptr %1, ptr %5, align 8, !tbaa !17
  call void @llvm.lifetime.start.p0(i64 8, ptr %6) #10
  call void @llvm.lifetime.start.p0(i64 4, ptr %7) #10
  call void @llvm.lifetime.start.p0(i64 8, ptr %8) #10
  call void @llvm.lifetime.start.p0(i64 4, ptr %9) #10
  %11 = load ptr, ptr %4, align 8, !tbaa !17
  call void @SSL_get0_next_proto_negotiated(ptr noundef %11, ptr noundef %6, ptr noundef %7)
  %12 = load ptr, ptr %5, align 8, !tbaa !17
  call void @SSL_get0_next_proto_negotiated(ptr noundef %12, ptr noundef %8, ptr noundef %9)
  %13 = load i32, ptr %7, align 4, !tbaa !4
  %14 = icmp ne i32 %13, 0
  br i1 %14, label %15, label %24

15:                                               ; preds = %2
  %16 = load ptr, ptr @bio_stdout, align 8, !tbaa !35
  %17 = call i32 (ptr, ptr, ...) @BIO_printf(ptr noundef %16, ptr noundef @.str.243)
  %18 = load ptr, ptr @bio_stdout, align 8, !tbaa !35
  %19 = load ptr, ptr %6, align 8, !tbaa !11
  %20 = load i32, ptr %7, align 4, !tbaa !4
  %21 = call i32 @BIO_write(ptr noundef %18, ptr noundef %19, i32 noundef %20)
  %22 = load ptr, ptr @bio_stdout, align 8, !tbaa !35
  %23 = call i32 (ptr, ptr, ...) @BIO_printf(ptr noundef %22, ptr noundef @.str.86)
  br label %24

24:                                               ; preds = %15, %2
  %25 = load i32, ptr %9, align 4, !tbaa !4
  %26 = icmp ne i32 %25, 0
  br i1 %26, label %27, label %36

27:                                               ; preds = %24
  %28 = load ptr, ptr @bio_stdout, align 8, !tbaa !35
  %29 = call i32 (ptr, ptr, ...) @BIO_printf(ptr noundef %28, ptr noundef @.str.244)
  %30 = load ptr, ptr @bio_stdout, align 8, !tbaa !35
  %31 = load ptr, ptr %8, align 8, !tbaa !11
  %32 = load i32, ptr %9, align 4, !tbaa !4
  %33 = call i32 @BIO_write(ptr noundef %30, ptr noundef %31, i32 noundef %32)
  %34 = load ptr, ptr @bio_stdout, align 8, !tbaa !35
  %35 = call i32 (ptr, ptr, ...) @BIO_printf(ptr noundef %34, ptr noundef @.str.86)
  br label %36

36:                                               ; preds = %27, %24
  %37 = load i32, ptr %7, align 4, !tbaa !4
  %38 = icmp ne i32 %37, 0
  br i1 %38, label %39, label %50

39:                                               ; preds = %36
  %40 = load i32, ptr %7, align 4, !tbaa !4
  %41 = zext i32 %40 to i64
  %42 = icmp ne i64 %41, 9
  br i1 %42, label %49, label %43

43:                                               ; preds = %39
  %44 = load ptr, ptr %6, align 8, !tbaa !11
  %45 = load i32, ptr %7, align 4, !tbaa !4
  %46 = zext i32 %45 to i64
  %47 = call i32 @memcmp(ptr noundef %44, ptr noundef getelementptr inbounds (i8, ptr @NEXT_PROTO_STRING, i64 1), i64 noundef %46) #11
  %48 = icmp ne i32 %47, 0
  br i1 %48, label %49, label %50

49:                                               ; preds = %43, %39
  store i32 -1, ptr %3, align 4
  store i32 1, ptr %10, align 4
  br label %99

50:                                               ; preds = %43, %36
  %51 = load i32, ptr %9, align 4, !tbaa !4
  %52 = icmp ne i32 %51, 0
  br i1 %52, label %53, label %64

53:                                               ; preds = %50
  %54 = load i32, ptr %9, align 4, !tbaa !4
  %55 = zext i32 %54 to i64
  %56 = icmp ne i64 %55, 9
  br i1 %56, label %63, label %57

57:                                               ; preds = %53
  %58 = load ptr, ptr %8, align 8, !tbaa !11
  %59 = load i32, ptr %9, align 4, !tbaa !4
  %60 = zext i32 %59 to i64
  %61 = call i32 @memcmp(ptr noundef %58, ptr noundef getelementptr inbounds (i8, ptr @NEXT_PROTO_STRING, i64 1), i64 noundef %60) #11
  %62 = icmp ne i32 %61, 0
  br i1 %62, label %63, label %64

63:                                               ; preds = %57, %53
  store i32 -1, ptr %3, align 4
  store i32 1, ptr %10, align 4
  br label %99

64:                                               ; preds = %57, %50
  %65 = load i32, ptr @npn_client, align 4, !tbaa !4
  %66 = icmp ne i32 %65, 0
  br i1 %66, label %71, label %67

67:                                               ; preds = %64
  %68 = load i32, ptr %7, align 4, !tbaa !4
  %69 = icmp ne i32 %68, 0
  br i1 %69, label %70, label %71

70:                                               ; preds = %67
  store i32 -1, ptr %3, align 4
  store i32 1, ptr %10, align 4
  br label %99

71:                                               ; preds = %67, %64
  %72 = load i32, ptr @npn_server, align 4, !tbaa !4
  %73 = icmp ne i32 %72, 0
  br i1 %73, label %78, label %74

74:                                               ; preds = %71
  %75 = load i32, ptr %9, align 4, !tbaa !4
  %76 = icmp ne i32 %75, 0
  br i1 %76, label %77, label %78

77:                                               ; preds = %74
  store i32 -1, ptr %3, align 4
  store i32 1, ptr %10, align 4
  br label %99

78:                                               ; preds = %74, %71
  %79 = load i32, ptr @npn_server_reject, align 4, !tbaa !4
  %80 = icmp ne i32 %79, 0
  br i1 %80, label %81, label %85

81:                                               ; preds = %78
  %82 = load i32, ptr %9, align 4, !tbaa !4
  %83 = icmp ne i32 %82, 0
  br i1 %83, label %84, label %85

84:                                               ; preds = %81
  store i32 -1, ptr %3, align 4
  store i32 1, ptr %10, align 4
  br label %99

85:                                               ; preds = %81, %78
  %86 = load i32, ptr @npn_client, align 4, !tbaa !4
  %87 = icmp ne i32 %86, 0
  br i1 %87, label %88, label %98

88:                                               ; preds = %85
  %89 = load i32, ptr @npn_server, align 4, !tbaa !4
  %90 = icmp ne i32 %89, 0
  br i1 %90, label %91, label %98

91:                                               ; preds = %88
  %92 = load i32, ptr %7, align 4, !tbaa !4
  %93 = icmp ne i32 %92, 0
  br i1 %93, label %94, label %97

94:                                               ; preds = %91
  %95 = load i32, ptr %9, align 4, !tbaa !4
  %96 = icmp ne i32 %95, 0
  br i1 %96, label %98, label %97

97:                                               ; preds = %94, %91
  store i32 -1, ptr %3, align 4
  store i32 1, ptr %10, align 4
  br label %99

98:                                               ; preds = %94, %88, %85
  store i32 0, ptr %3, align 4
  store i32 1, ptr %10, align 4
  br label %99

99:                                               ; preds = %98, %97, %84, %77, %70, %63, %49
  call void @llvm.lifetime.end.p0(i64 4, ptr %9) #10
  call void @llvm.lifetime.end.p0(i64 8, ptr %8) #10
  call void @llvm.lifetime.end.p0(i64 4, ptr %7) #10
  call void @llvm.lifetime.end.p0(i64 8, ptr %6) #10
  %100 = load i32, ptr %3, align 4
  ret i32 %100
}