; Function Attrs: nounwind uwtable
define internal fastcc range(i32 -1, 1) i32 @verify_npn(ptr noundef %0, ptr noundef %1) unnamed_addr #7 {
  %3 = alloca ptr, align 8
  %4 = alloca i32, align 4
  %5 = alloca ptr, align 8
  %6 = alloca i32, align 4
  call void @llvm.lifetime.start.p0(i64 8, ptr nonnull %3) #23
  call void @llvm.lifetime.start.p0(i64 4, ptr nonnull %4) #23
  call void @llvm.lifetime.start.p0(i64 8, ptr nonnull %5) #23
  call void @llvm.lifetime.start.p0(i64 4, ptr nonnull %6) #23
  call void @SSL_get0_next_proto_negotiated(ptr noundef %0, ptr noundef nonnull %3, ptr noundef nonnull %4) #23
  call void @SSL_get0_next_proto_negotiated(ptr noundef %1, ptr noundef nonnull %5, ptr noundef nonnull %6) #23
  %7 = load i32, ptr %4, align 4, !tbaa !4
  %.not = icmp eq i32 %7, 0
  br i1 %.not, label %17, label %8

8:                                                ; preds = %2
  %9 = load ptr, ptr @bio_stdout, align 8, !tbaa !19
  %10 = call i32 (ptr, ptr, ...) @BIO_printf(ptr noundef %9, ptr noundef nonnull @.str.243) #23
  %11 = load ptr, ptr @bio_stdout, align 8, !tbaa !19
  %12 = load ptr, ptr %3, align 8, !tbaa !21
  %13 = load i32, ptr %4, align 4, !tbaa !4
  %14 = call i32 @BIO_write(ptr noundef %11, ptr noundef %12, i32 noundef %13) #23
  %15 = load ptr, ptr @bio_stdout, align 8, !tbaa !19
  %16 = call i32 (ptr, ptr, ...) @BIO_printf(ptr noundef %15, ptr noundef nonnull @.str.86) #23
  br label %17

17:                                               ; preds = %8, %2
  %18 = load i32, ptr %6, align 4, !tbaa !4
  %.not17 = icmp eq i32 %18, 0
  br i1 %.not17, label %28, label %19

19:                                               ; preds = %17
  %20 = load ptr, ptr @bio_stdout, align 8, !tbaa !19
  %21 = call i32 (ptr, ptr, ...) @BIO_printf(ptr noundef %20, ptr noundef nonnull @.str.244) #23
  %22 = load ptr, ptr @bio_stdout, align 8, !tbaa !19
  %23 = load ptr, ptr %5, align 8, !tbaa !21
  %24 = load i32, ptr %6, align 4, !tbaa !4
  %25 = call i32 @BIO_write(ptr noundef %22, ptr noundef %23, i32 noundef %24) #23
  %26 = load ptr, ptr @bio_stdout, align 8, !tbaa !19
  %27 = call i32 (ptr, ptr, ...) @BIO_printf(ptr noundef %26, ptr noundef nonnull @.str.86) #23
  br label %28

28:                                               ; preds = %19, %17
  %29 = load i32, ptr %4, align 4, !tbaa !4
  switch i32 %29, label %45 [
    i32 0, label %32
    i32 9, label %30
  ]

30:                                               ; preds = %28
  %31 = load ptr, ptr %3, align 8, !tbaa !21
  %bcmp = call i32 @bcmp(ptr noundef nonnull dereferenceable(9) %31, ptr noundef nonnull dereferenceable(9) getelementptr inbounds nuw (i8, ptr @NEXT_PROTO_STRING, i64 1), i64 9)
  %.not20 = icmp eq i32 %bcmp, 0
  br i1 %.not20, label %32, label %45

32:                                               ; preds = %28, %30
  %33 = load i32, ptr %6, align 4, !tbaa !4
  switch i32 %33, label %45 [
    i32 0, label %36
    i32 9, label %34
  ]

34:                                               ; preds = %32
  %35 = load ptr, ptr %5, align 8, !tbaa !21
  %bcmp23 = call i32 @bcmp(ptr noundef nonnull dereferenceable(9) %35, ptr noundef nonnull dereferenceable(9) getelementptr inbounds nuw (i8, ptr @NEXT_PROTO_STRING, i64 1), i64 9)
  %.not24 = icmp eq i32 %bcmp23, 0
  br i1 %.not24, label %36, label %45

36:                                               ; preds = %32, %34
  %.b = load i1, ptr @npn_client, align 4
  %37 = xor i1 %.b, true
  %38 = icmp ne i32 %29, 0
  %or.cond = and i1 %38, %37
  br i1 %or.cond, label %45, label %39

39:                                               ; preds = %36
  %.b15 = load i1, ptr @npn_server, align 4
  %40 = xor i1 %.b15, true
  %41 = icmp ne i32 %33, 0
  %.b16 = load i1, ptr @npn_server_reject, align 4
  %42 = select i1 %40, i1 true, i1 %.b16
  %or.cond26 = and i1 %41, %42
  br i1 %or.cond26, label %45, label %43

43:                                               ; preds = %39
  %or.cond9 = and i1 %38, %41
  %or.cond9.not = xor i1 %or.cond9, true
  %44 = and i1 %.b15, %or.cond9.not
  %not.or.cond25 = and i1 %.b, %44
  %spec.select = sext i1 %not.or.cond25 to i32
  br label %45

45:                                               ; preds = %43, %39, %36, %34, %32, %30, %28
  %.0 = phi i32 [ -1, %28 ], [ -1, %30 ], [ -1, %32 ], [ -1, %34 ], [ -1, %36 ], [ -1, %39 ], [ %spec.select, %43 ]
  call void @llvm.lifetime.end.p0(i64 4, ptr nonnull %6) #23
  call void @llvm.lifetime.end.p0(i64 8, ptr nonnull %5) #23
  call void @llvm.lifetime.end.p0(i64 4, ptr nonnull %4) #23
  call void @llvm.lifetime.end.p0(i64 8, ptr nonnull %3) #23
  ret i32 %.0
}